target datalayout = "e-m:e-p270:32:32-p271:32:32-p272:64:64-i64:64-i128:128-f80:128-n8:16:32:64-S128"
target triple = "x86_64-pc-linux-gnu"

%struct.FontManagerNativeIDs = type { ptr, ptr, ptr, ptr, ptr, ptr, ptr, ptr, ptr, ptr, ptr, ptr, ptr, ptr, ptr, ptr, ptr, ptr, ptr, ptr, ptr, ptr, ptr, ptr, ptr, ptr, ptr, ptr, ptr, ptr, ptr, ptr, ptr, ptr, ptr, ptr, ptr }
%struct.NativeScalerContext = type { ptr, i32, i32, i32, i32, i32, double }
%struct.JNINativeInterface_ = type { ptr, ptr, ptr, ptr, ptr, ptr, ptr, ptr, ptr, ptr, ptr, ptr, ptr, ptr, ptr, ptr, ptr, ptr, ptr, ptr, ptr, ptr, ptr, ptr, ptr, ptr, ptr, ptr, ptr, ptr, ptr, ptr, ptr, ptr, ptr, ptr, ptr, ptr, ptr, ptr, ptr, ptr, ptr, ptr, ptr, ptr, ptr, ptr, ptr, ptr, ptr, ptr, ptr, ptr, ptr, ptr, ptr, ptr, ptr, ptr, ptr, ptr, ptr, ptr, ptr, ptr, ptr, ptr, ptr, ptr, ptr, ptr, ptr, ptr, ptr, ptr, ptr, ptr, ptr, ptr, ptr, ptr, ptr, ptr, ptr, ptr, ptr, ptr, ptr, ptr, ptr, ptr, ptr, ptr, ptr, ptr, ptr, ptr, ptr, ptr, ptr, ptr, ptr, ptr, ptr, ptr, ptr, ptr, ptr, ptr, ptr, ptr, ptr, ptr, ptr, ptr, ptr, ptr, ptr, ptr, ptr, ptr, ptr, ptr, ptr, ptr, ptr, ptr, ptr, ptr, ptr, ptr, ptr, ptr, ptr, ptr, ptr, ptr, ptr, ptr, ptr, ptr, ptr, ptr, ptr, ptr, ptr, ptr, ptr, ptr, ptr, ptr, ptr, ptr, ptr, ptr, ptr, ptr, ptr, ptr, ptr, ptr, ptr, ptr, ptr, ptr, ptr, ptr, ptr, ptr, ptr, ptr, ptr, ptr, ptr, ptr, ptr, ptr, ptr, ptr, ptr, ptr, ptr, ptr, ptr, ptr, ptr, ptr, ptr, ptr, ptr, ptr, ptr, ptr, ptr, ptr, ptr, ptr, ptr, ptr, ptr, ptr, ptr, ptr, ptr, ptr, ptr, ptr, ptr, ptr, ptr, ptr, ptr, ptr, ptr, ptr, ptr, ptr, ptr, ptr, ptr, ptr, ptr, ptr, ptr, ptr, ptr, ptr, ptr, ptr, ptr, ptr, ptr, ptr, ptr }

@sunFontIDs = external global %struct.FontManagerNativeIDs, align 8

; Function Attrs: nounwind uwtable
define ptr @Java_sun_font_NativeFont_getFontMetrics(ptr noundef %0, ptr noundef %1, i64 noundef %2) #0 {
  %4 = alloca ptr, align 8
  %5 = alloca ptr, align 8
  %6 = alloca ptr, align 8
  %7 = alloca i64, align 8
  %8 = alloca float, align 4
  %9 = alloca float, align 4
  %10 = alloca float, align 4
  %11 = alloca float, align 4
  %12 = alloca float, align 4
  %13 = alloca ptr, align 8
  %14 = alloca ptr, align 8
  %15 = alloca ptr, align 8
  store ptr %0, ptr %5, align 8
  store ptr %1, ptr %6, align 8
  store i64 %2, ptr %7, align 8
  store float 0.000000e+00, ptr %8, align 4
  store float 1.000000e+00, ptr %9, align 4
  %16 = load float, ptr %8, align 4
  store float %16, ptr %10, align 4
  %17 = load float, ptr %8, align 4
  store float %17, ptr %11, align 4
  %18 = load float, ptr %8, align 4
  store float %18, ptr %12, align 4
  %19 = load i64, ptr %7, align 8
  %20 = inttoptr i64 %19 to ptr
  store ptr %20, ptr %15, align 8
  %21 = load ptr, ptr %15, align 8
  %22 = icmp eq ptr %21, null
  br i1 %22, label %23, label %24

23:                                               ; preds = %3
  store ptr null, ptr %4, align 8
  br label %73

24:                                               ; preds = %3
  %25 = load ptr, ptr %15, align 8
  %26 = getelementptr inbounds %struct.NativeScalerContext, ptr %25, i32 0, i32 0
  %27 = load ptr, ptr %26, align 8
  store ptr %27, ptr %14, align 8
  br label %28

28:                                               ; preds = %24
  %29 = load ptr, ptr %14, align 8
  %30 = icmp eq ptr %29, null
  br i1 %30, label %31, label %32

31:                                               ; preds = %28
  store ptr null, ptr %4, align 8
  br label %73

32:                                               ; preds = %28
  %33 = load ptr, ptr %14, align 8
  %34 = call i32 @AWTFontAscent(ptr noundef %33)
  %35 = sub nsw i32 0, %34
  %36 = sitofp i32 %35 to float
  store float %36, ptr %10, align 4
  %37 = load ptr, ptr %14, align 8
  %38 = call i32 @AWTFontDescent(ptr noundef %37)
  %39 = sitofp i32 %38 to float
  store float %39, ptr %11, align 4
  %40 = load ptr, ptr %14, align 8
  %41 = call ptr @AWTFontMaxBounds(ptr noundef %40)
  %42 = call signext i16 @AWTCharAdvance(ptr noundef %41)
  %43 = sitofp i16 %42 to float
  store float %43, ptr %12, align 4
  %44 = load ptr, ptr %5, align 8
  %45 = load ptr, ptr %44, align 8
  %46 = getelementptr inbounds %struct.JNINativeInterface_, ptr %45, i32 0, i32 28
  %47 = load ptr, ptr %46, align 8
  %48 = load ptr, ptr %5, align 8
  %49 = load ptr, ptr getelementptr inbounds (%struct.FontManagerNativeIDs, ptr @sunFontIDs, i32 0, i32 24), align 8
  %50 = load ptr, ptr getelementptr inbounds (%struct.FontManagerNativeIDs, ptr @sunFontIDs, i32 0, i32 25), align 8
  %51 = load float, ptr %8, align 4
  %52 = fpext float %51 to double
  %53 = load float, ptr %10, align 4
  %54 = fpext float %53 to double
  %55 = load float, ptr %8, align 4
  %56 = fpext float %55 to double
  %57 = load float, ptr %11, align 4
  %58 = fpext float %57 to double
  %59 = load float, ptr %9, align 4
  %60 = fpext float %59 to double
  %61 = load float, ptr %8, align 4
  %62 = fpext float %61 to double
  %63 = load float, ptr %8, align 4
  %64 = fpext float %63 to double
  %65 = load float, ptr %9, align 4
  %66 = fpext float %65 to double
  %67 = load float, ptr %12, align 4
  %68 = fpext float %67 to double
  %69 = load float, ptr %8, align 4
  %70 = fpext float %69 to double
  %71 = call ptr (ptr, ptr, ptr, ...) %47(ptr noundef %48, ptr noundef %49, ptr noundef %50, double noundef %52, double noundef %54, double noundef %56, double noundef %58, double noundef %60, double noundef %62, double noundef %64, double noundef %66, double noundef %68, double noundef %70)
  store ptr %71, ptr %13, align 8
  %72 = load ptr, ptr %13, align 8
  store ptr %72, ptr %4, align 8
  br label %73

73:                                               ; preds = %32, %31, %23
  %74 = load ptr, ptr %4, align 8
  ret ptr %74
}