; Function Attrs: nounwind uwtable
define ptr @Java_sun_font_NativeFont_getFontMetrics(ptr noundef %0, ptr nocapture noundef readnone %1, i64 noundef %2) local_unnamed_addr #0 {
  %4 = icmp eq i64 %2, 0
  br i1 %4, label %26, label %5

5:                                                ; preds = %3
  %6 = inttoptr i64 %2 to ptr
  %7 = load ptr, ptr %6, align 8
  %8 = icmp eq ptr %7, null
  br i1 %8, label %26, label %9

9:                                                ; preds = %5
  %10 = tail call i32 @AWTFontAscent(ptr noundef nonnull %7) #7
  %11 = sub nsw i32 0, %10
  %12 = sitofp i32 %11 to float
  %13 = tail call i32 @AWTFontDescent(ptr noundef nonnull %7) #7
  %14 = sitofp i32 %13 to float
  %15 = tail call ptr @AWTFontMaxBounds(ptr noundef nonnull %7) #7
  %16 = tail call signext i16 @AWTCharAdvance(ptr noundef %15) #7
  %17 = load ptr, ptr %0, align 8
  %18 = getelementptr inbounds i8, ptr %17, i64 224
  %19 = load ptr, ptr %18, align 8
  %20 = load ptr, ptr getelementptr inbounds (i8, ptr @sunFontIDs, i64 192), align 8
  %21 = load ptr, ptr getelementptr inbounds (i8, ptr @sunFontIDs, i64 200), align 8
  %22 = fpext float %12 to double
  %23 = fpext float %14 to double
  %24 = sitofp i16 %16 to double
  %25 = tail call ptr (ptr, ptr, ptr, ...) %19(ptr noundef nonnull %0, ptr noundef %20, ptr noundef %21, double noundef 0.000000e+00, double noundef %22, double noundef 0.000000e+00, double noundef %23, double noundef 1.000000e+00, double noundef 0.000000e+00, double noundef 0.000000e+00, double noundef 1.000000e+00, double noundef %24, double noundef 0.000000e+00) #7
  br label %26

26:                                               ; preds = %5, %3, %9
  %.0 = phi ptr [ %25, %9 ], [ null, %3 ], [ null, %5 ]
  ret ptr %.0
}